target datalayout = "e-m:e-p270:32:32-p271:32:32-p272:64:64-i64:64-i128:128-f80:128-n8:16:32:64-S128"
target triple = "x86_64-unknown-linux-gnu"

; Function Attrs: mustprogress nounwind uwtable
define hidden noundef zeroext i1 @_ZN19OpenColorIO_v2_4dev11Lut1DOpData20IsValidInterpolationENS_13InterpolationE(i32 noundef %interpolation) #5 align 2 {
entry:
  %retval = alloca i1, align 1
  %interpolation.addr = alloca i32, align 4
  store i32 %interpolation, ptr %interpolation.addr, align 4
  %0 = load i32, ptr %interpolation.addr, align 4
  switch i32 %0, label %sw.default [
    i32 255, label %sw.bb
    i32 254, label %sw.bb
    i32 2, label %sw.bb
    i32 1, label %sw.bb
    i32 4, label %sw.bb1
    i32 3, label %sw.bb1
    i32 0, label %sw.bb1
  ]

sw.bb:                                            ; preds = %entry, %entry, %entry, %entry
  store i1 true, ptr %retval, align 1
  br label %return

sw.bb1:                                           ; preds = %entry, %entry, %entry
  br label %sw.default

sw.default:                                       ; preds = %sw.bb1, %entry
  store i1 false, ptr %retval, align 1
  br label %return

return:                                           ; preds = %sw.default, %sw.bb
  %1 = load i1, ptr %retval, align 1
  ret i1 %1
}