; Function Attrs: mustprogress nofree norecurse nosync nounwind willreturn memory(none) uwtable
define hidden noundef zeroext i1 @_ZN19OpenColorIO_v2_4dev11Lut1DOpData20IsValidInterpolationENS_13InterpolationE(i32 noundef %interpolation) local_unnamed_addr #7 align 2 {
entry:
  switch i32 %interpolation, label %sw.default [
    i32 255, label %return
    i32 254, label %return
    i32 2, label %return
    i32 1, label %return
  ]

sw.default:                                       ; preds = %entry
  br label %return

return:                                           ; preds = %entry, %entry, %entry, %entry, %sw.default
  %retval.0 = phi i1 [ false, %sw.default ], [ true, %entry ], [ true, %entry ], [ true, %entry ], [ true, %entry ]
  ret i1 %retval.0
}